target datalayout = "e-m:e-p270:32:32-p271:32:32-p272:64:64-i64:64-i128:128-f80:128-n8:16:32:64-S128"
target triple = "x86_64-unknown-linux-gnu"

%"class.QuantLib::Date" = type { i64 }
%"class.boost::detail::shared_count" = type { ptr }
%"class.QuantLib::Handle" = type { %"class.boost::shared_ptr.18" }
%"class.boost::shared_ptr.18" = type { ptr, %"class.boost::detail::shared_count" }
%"class.QuantLib::RelinkableHandle" = type { %"class.QuantLib::Handle" }

; Function Attrs: mustprogress uwtable
define void @_ZN8QuantLib13FraRateHelperC2EdjjRKN5boost10shared_ptrINS_9IborIndexEEENS_6Pillar6ChoiceENS_4DateEb(ptr noundef nonnull align 8 dereferenceable(272) %this, double noundef %rate, i32 noundef %immOffsetStart, i32 noundef %immOffsetEnd, ptr noundef nonnull align 8 dereferenceable(16) %i, i32 noundef %pillarChoice, i64 %customPillarDate.coerce, i1 noundef zeroext %useIndexedCoupon) unnamed_addr #2 align 2 personality ptr @__gxx_personality_v0 {
entry:
  %customPillarDate = alloca %"class.QuantLib::Date", align 8
  %this.addr = alloca ptr, align 8
  %rate.addr = alloca double, align 8
  %immOffsetStart.addr = alloca i32, align 4
  %immOffsetEnd.addr = alloca i32, align 4
  %i.addr = alloca ptr, align 8
  %pillarChoice.addr = alloca i32, align 4
  %useIndexedCoupon.addr = alloca i8, align 1
  %ref.tmp = alloca %"class.QuantLib::RelinkableHandle", align 8
  %agg.tmp = alloca %"class.QuantLib::Date", align 8
  %exn.slot = alloca ptr, align 8
  %ehselector.slot = alloca i32, align 4
  %coerce.dive = getelementptr inbounds nuw %"class.QuantLib::Date", ptr %customPillarDate, i32 0, i32 0
  store i64 %customPillarDate.coerce, ptr %coerce.dive, align 8
  store ptr %this, ptr %this.addr, align 8, !tbaa !3
  store double %rate, ptr %rate.addr, align 8, !tbaa !55
  store i32 %immOffsetStart, ptr %immOffsetStart.addr, align 4, !tbaa !18
  store i32 %immOffsetEnd, ptr %immOffsetEnd.addr, align 4, !tbaa !18
  store ptr %i, ptr %i.addr, align 8, !tbaa !3
  store i32 %pillarChoice, ptr %pillarChoice.addr, align 4, !tbaa !83
  %storedv = zext i1 %useIndexedCoupon to i8
  store i8 %storedv, ptr %useIndexedCoupon.addr, align 1, !tbaa !22
  %this1 = load ptr, ptr %this.addr, align 8
  call void @llvm.lifetime.start.p0(i64 16, ptr %ref.tmp) #17
  %0 = load double, ptr %rate.addr, align 8, !tbaa !55
  call void @_ZN8QuantLib15makeQuoteHandleEd(ptr dead_on_unwind writable sret(%"class.QuantLib::RelinkableHandle") align 8 %ref.tmp, double noundef %0)
  %1 = load i32, ptr %immOffsetStart.addr, align 4, !tbaa !18
  %2 = load i32, ptr %immOffsetEnd.addr, align 4, !tbaa !18
  %3 = load ptr, ptr %i.addr, align 8, !tbaa !3
  %4 = load i32, ptr %pillarChoice.addr, align 4, !tbaa !83
  call void @llvm.memcpy.p0.p0.i64(ptr align 8 %agg.tmp, ptr align 8 %customPillarDate, i64 8, i1 false), !tbaa.struct !26
  %5 = load i8, ptr %useIndexedCoupon.addr, align 1, !tbaa !22, !range !29, !noundef !30
  %loadedv = trunc i8 %5 to i1
  %coerce.dive2 = getelementptr inbounds nuw %"class.QuantLib::Date", ptr %agg.tmp, i32 0, i32 0
  %6 = load i64, ptr %coerce.dive2, align 8
  invoke void @_ZN8QuantLib13FraRateHelperC2ERKNS_6HandleINS_5QuoteEEEjjRKN5boost10shared_ptrINS_9IborIndexEEENS_6Pillar6ChoiceENS_4DateEb(ptr noundef nonnull align 8 dereferenceable(272) %this1, ptr noundef nonnull align 8 dereferenceable(16) %ref.tmp, i32 noundef %1, i32 noundef %2, ptr noundef nonnull align 8 dereferenceable(16) %3, i32 noundef %4, i64 %6, i1 noundef zeroext %loadedv)
          to label %invoke.cont unwind label %lpad

invoke.cont:                                      ; preds = %entry
  call void @_ZN8QuantLib6HandleINS_5QuoteEED2Ev(ptr noundef nonnull align 8 dereferenceable(16) %ref.tmp) #17
  call void @llvm.lifetime.end.p0(i64 16, ptr %ref.tmp) #17
  ret void

lpad:                                             ; preds = %entry
  %7 = landingpad { ptr, i32 }
          cleanup
  %8 = extractvalue { ptr, i32 } %7, 0
  store ptr %8, ptr %exn.slot, align 8
  %9 = extractvalue { ptr, i32 } %7, 1
  store i32 %9, ptr %ehselector.slot, align 4
  call void @_ZN8QuantLib6HandleINS_5QuoteEED2Ev(ptr noundef nonnull align 8 dereferenceable(16) %ref.tmp) #17
  call void @llvm.lifetime.end.p0(i64 16, ptr %ref.tmp) #17
  br label %eh.resume

eh.resume:                                        ; preds = %lpad
  %exn = load ptr, ptr %exn.slot, align 8
  %sel = load i32, ptr %ehselector.slot, align 4
  %lpad.val = insertvalue { ptr, i32 } poison, ptr %exn, 0
  %lpad.val3 = insertvalue { ptr, i32 } %lpad.val, i32 %sel, 1
  resume { ptr, i32 } %lpad.val3
}